target datalayout = "e-m:e-p270:32:32-p271:32:32-p272:64:64-i64:64-i128:128-f80:128-n8:16:32:64-S128"
target triple = "x86_64-pc-linux-gnu"

%struct.mbedtls_md_info_t = type { ptr, i32, i8, i8 }
%struct.mbedtls_md_context_t = type { ptr, ptr, ptr }

; Function Attrs: mustprogress uwtable
define hidden i32 @mbedtls_md_update(ptr noundef %0, ptr noundef %1, i64 noundef %2) #1 {
  %4 = alloca i32, align 4
  %5 = alloca ptr, align 8
  %6 = alloca ptr, align 8
  %7 = alloca i64, align 8
  store ptr %0, ptr %5, align 8, !tbaa !10
  store ptr %1, ptr %6, align 8, !tbaa !3
  store i64 %2, ptr %7, align 8, !tbaa !23
  %8 = load ptr, ptr %5, align 8, !tbaa !10
  %9 = icmp eq ptr %8, null
  br i1 %9, label %15, label %10

10:                                               ; preds = %3
  %11 = load ptr, ptr %5, align 8, !tbaa !10
  %12 = getelementptr inbounds nuw %struct.mbedtls_md_context_t, ptr %11, i32 0, i32 0
  %13 = load ptr, ptr %12, align 8, !tbaa !12
  %14 = icmp eq ptr %13, null
  br i1 %14, label %15, label %16

15:                                               ; preds = %10, %3
  store i32 -20736, ptr %4, align 4
  br label %44

16:                                               ; preds = %10
  %17 = load ptr, ptr %5, align 8, !tbaa !10
  %18 = getelementptr inbounds nuw %struct.mbedtls_md_context_t, ptr %17, i32 0, i32 0
  %19 = load ptr, ptr %18, align 8, !tbaa !12
  %20 = getelementptr inbounds nuw %struct.mbedtls_md_info_t, ptr %19, i32 0, i32 1
  %21 = load i32, ptr %20, align 8, !tbaa !16
  switch i32 %21, label %43 [
    i32 2, label %22
    i32 3, label %29
    i32 4, label %36
  ]

22:                                               ; preds = %16
  %23 = load ptr, ptr %5, align 8, !tbaa !10
  %24 = getelementptr inbounds nuw %struct.mbedtls_md_context_t, ptr %23, i32 0, i32 1
  %25 = load ptr, ptr %24, align 8, !tbaa !15
  %26 = load ptr, ptr %6, align 8, !tbaa !3
  %27 = load i64, ptr %7, align 8, !tbaa !23
  %28 = call i32 @mbedtls_sha1_update(ptr noundef %25, ptr noundef %26, i64 noundef %27)
  store i32 %28, ptr %4, align 4
  br label %44

29:                                               ; preds = %16
  %30 = load ptr, ptr %5, align 8, !tbaa !10
  %31 = getelementptr inbounds nuw %struct.mbedtls_md_context_t, ptr %30, i32 0, i32 1
  %32 = load ptr, ptr %31, align 8, !tbaa !15
  %33 = load ptr, ptr %6, align 8, !tbaa !3
  %34 = load i64, ptr %7, align 8, !tbaa !23
  %35 = call i32 @mbedtls_sha256_update(ptr noundef %32, ptr noundef %33, i64 noundef %34)
  store i32 %35, ptr %4, align 4
  br label %44

36:                                               ; preds = %16
  %37 = load ptr, ptr %5, align 8, !tbaa !10
  %38 = getelementptr inbounds nuw %struct.mbedtls_md_context_t, ptr %37, i32 0, i32 1
  %39 = load ptr, ptr %38, align 8, !tbaa !15
  %40 = load ptr, ptr %6, align 8, !tbaa !3
  %41 = load i64, ptr %7, align 8, !tbaa !23
  %42 = call i32 @mbedtls_sha256_update(ptr noundef %39, ptr noundef %40, i64 noundef %41)
  store i32 %42, ptr %4, align 4
  br label %44

43:                                               ; preds = %16
  store i32 -20736, ptr %4, align 4
  br label %44

44:                                               ; preds = %43, %36, %29, %22, %15
  %45 = load i32, ptr %4, align 4
  ret i32 %45
}

; Function Attrs: mustprogress uwtable
define hidden i32 @mbedtls_md_starts(ptr noundef %0) #1 {
  %2 = alloca i32, align 4
  %3 = alloca ptr, align 8
  store ptr %0, ptr %3, align 8, !tbaa !10
  %4 = load ptr, ptr %3, align 8, !tbaa !10
  %5 = icmp eq ptr %4, null
  br i1 %5, label %11, label %6

6:                                                ; preds = %1
  %7 = load ptr, ptr %3, align 8, !tbaa !10
  %8 = getelementptr inbounds nuw %struct.mbedtls_md_context_t, ptr %7, i32 0, i32 0
  %9 = load ptr, ptr %8, align 8, !tbaa !12
  %10 = icmp eq ptr %9, null
  br i1 %10, label %11, label %12

11:                                               ; preds = %6, %1
  store i32 -20736, ptr %2, align 4
  br label %34

12:                                               ; preds = %6
  %13 = load ptr, ptr %3, align 8, !tbaa !10
  %14 = getelementptr inbounds nuw %struct.mbedtls_md_context_t, ptr %13, i32 0, i32 0
  %15 = load ptr, ptr %14, align 8, !tbaa !12
  %16 = getelementptr inbounds nuw %struct.mbedtls_md_info_t, ptr %15, i32 0, i32 1
  %17 = load i32, ptr %16, align 8, !tbaa !16
  switch i32 %17, label %33 [
    i32 2, label %18
    i32 3, label %23
    i32 4, label %28
  ]

18:                                               ; preds = %12
  %19 = load ptr, ptr %3, align 8, !tbaa !10
  %20 = getelementptr inbounds nuw %struct.mbedtls_md_context_t, ptr %19, i32 0, i32 1
  %21 = load ptr, ptr %20, align 8, !tbaa !15
  %22 = call i32 @mbedtls_sha1_starts(ptr noundef %21)
  store i32 %22, ptr %2, align 4
  br label %34

23:                                               ; preds = %12
  %24 = load ptr, ptr %3, align 8, !tbaa !10
  %25 = getelementptr inbounds nuw %struct.mbedtls_md_context_t, ptr %24, i32 0, i32 1
  %26 = load ptr, ptr %25, align 8, !tbaa !15
  %27 = call i32 @mbedtls_sha256_starts(ptr noundef %26, i32 noundef 1)
  store i32 %27, ptr %2, align 4
  br label %34

28:                                               ; preds = %12
  %29 = load ptr, ptr %3, align 8, !tbaa !10
  %30 = getelementptr inbounds nuw %struct.mbedtls_md_context_t, ptr %29, i32 0, i32 1
  %31 = load ptr, ptr %30, align 8, !tbaa !15
  %32 = call i32 @mbedtls_sha256_starts(ptr noundef %31, i32 noundef 0)
  store i32 %32, ptr %2, align 4
  br label %34

33:                                               ; preds = %12
  store i32 -20736, ptr %2, align 4
  br label %34

34:                                               ; preds = %33, %28, %23, %18, %11
  %35 = load i32, ptr %2, align 4
  ret i32 %35
}

; Function Attrs: mustprogress uwtable
define hidden i32 @mbedtls_md_hmac_starts(ptr noundef %0, ptr noundef %1, i64 noundef %2) #1 {
  %4 = alloca i32, align 4
  %5 = alloca ptr, align 8
  %6 = alloca ptr, align 8
  %7 = alloca i64, align 8
  %8 = alloca i32, align 4
  %9 = alloca [32 x i8], align 16
  %10 = alloca ptr, align 8
  %11 = alloca ptr, align 8
  %12 = alloca i64, align 8
  %13 = alloca i32, align 4
  store ptr %0, ptr %5, align 8, !tbaa !10
  store ptr %1, ptr %6, align 8, !tbaa !3
  store i64 %2, ptr %7, align 8, !tbaa !23
  call void @llvm.lifetime.start.p0(i64 4, ptr %8) #9
  store i32 -110, ptr %8, align 4, !tbaa !21
  call void @llvm.lifetime.start.p0(i64 32, ptr %9) #9
  call void @llvm.lifetime.start.p0(i64 8, ptr %10) #9
  call void @llvm.lifetime.start.p0(i64 8, ptr %11) #9
  call void @llvm.lifetime.start.p0(i64 8, ptr %12) #9
  %14 = load ptr, ptr %5, align 8, !tbaa !10
  %15 = icmp eq ptr %14, null
  br i1 %15, label %26, label %16

16:                                               ; preds = %3
  %17 = load ptr, ptr %5, align 8, !tbaa !10
  %18 = getelementptr inbounds nuw %struct.mbedtls_md_context_t, ptr %17, i32 0, i32 0
  %19 = load ptr, ptr %18, align 8, !tbaa !12
  %20 = icmp eq ptr %19, null
  br i1 %20, label %26, label %21

21:                                               ; preds = %16
  %22 = load ptr, ptr %5, align 8, !tbaa !10
  %23 = getelementptr inbounds nuw %struct.mbedtls_md_context_t, ptr %22, i32 0, i32 2
  %24 = load ptr, ptr %23, align 8, !tbaa !18
  %25 = icmp eq ptr %24, null
  br i1 %25, label %26, label %27

26:                                               ; preds = %21, %16, %3
  store i32 -20736, ptr %4, align 4
  store i32 1, ptr %13, align 4
  br label %150

27:                                               ; preds = %21
  %28 = load i64, ptr %7, align 8, !tbaa !23
  %29 = load ptr, ptr %5, align 8, !tbaa !10
  %30 = getelementptr inbounds nuw %struct.mbedtls_md_context_t, ptr %29, i32 0, i32 0
  %31 = load ptr, ptr %30, align 8, !tbaa !12
  %32 = getelementptr inbounds nuw %struct.mbedtls_md_info_t, ptr %31, i32 0, i32 3
  %33 = load i8, ptr %32, align 1, !tbaa !19
  %34 = zext i8 %33 to i64
  %35 = icmp ugt i64 %28, %34
  br i1 %35, label %36, label %62

36:                                               ; preds = %27
  %37 = load ptr, ptr %5, align 8, !tbaa !10
  %38 = call i32 @mbedtls_md_starts(ptr noundef %37)
  store i32 %38, ptr %8, align 4, !tbaa !21
  %39 = icmp ne i32 %38, 0
  br i1 %39, label %40, label %41

40:                                               ; preds = %36
  br label %147

41:                                               ; preds = %36
  %42 = load ptr, ptr %5, align 8, !tbaa !10
  %43 = load ptr, ptr %6, align 8, !tbaa !3
  %44 = load i64, ptr %7, align 8, !tbaa !23
  %45 = call i32 @mbedtls_md_update(ptr noundef %42, ptr noundef %43, i64 noundef %44)
  store i32 %45, ptr %8, align 4, !tbaa !21
  %46 = icmp ne i32 %45, 0
  br i1 %46, label %47, label %48

47:                                               ; preds = %41
  br label %147

48:                                               ; preds = %41
  %49 = load ptr, ptr %5, align 8, !tbaa !10
  %50 = getelementptr inbounds [32 x i8], ptr %9, i64 0, i64 0
  %51 = call i32 @mbedtls_md_finish(ptr noundef %49, ptr noundef %50)
  store i32 %51, ptr %8, align 4, !tbaa !21
  %52 = icmp ne i32 %51, 0
  br i1 %52, label %53, label %54

53:                                               ; preds = %48
  br label %147

54:                                               ; preds = %48
  %55 = load ptr, ptr %5, align 8, !tbaa !10
  %56 = getelementptr inbounds nuw %struct.mbedtls_md_context_t, ptr %55, i32 0, i32 0
  %57 = load ptr, ptr %56, align 8, !tbaa !12
  %58 = getelementptr inbounds nuw %struct.mbedtls_md_info_t, ptr %57, i32 0, i32 2
  %59 = load i8, ptr %58, align 4, !tbaa !25
  %60 = zext i8 %59 to i64
  store i64 %60, ptr %7, align 8, !tbaa !23
  %61 = getelementptr inbounds [32 x i8], ptr %9, i64 0, i64 0
  store ptr %61, ptr %6, align 8, !tbaa !3
  br label %62

62:                                               ; preds = %54, %27
  %63 = load ptr, ptr %5, align 8, !tbaa !10
  %64 = getelementptr inbounds nuw %struct.mbedtls_md_context_t, ptr %63, i32 0, i32 2
  %65 = load ptr, ptr %64, align 8, !tbaa !18
  store ptr %65, ptr %10, align 8, !tbaa !3
  %66 = load ptr, ptr %5, align 8, !tbaa !10
  %67 = getelementptr inbounds nuw %struct.mbedtls_md_context_t, ptr %66, i32 0, i32 2
  %68 = load ptr, ptr %67, align 8, !tbaa !18
  %69 = load ptr, ptr %5, align 8, !tbaa !10
  %70 = getelementptr inbounds nuw %struct.mbedtls_md_context_t, ptr %69, i32 0, i32 0
  %71 = load ptr, ptr %70, align 8, !tbaa !12
  %72 = getelementptr inbounds nuw %struct.mbedtls_md_info_t, ptr %71, i32 0, i32 3
  %73 = load i8, ptr %72, align 1, !tbaa !19
  %74 = zext i8 %73 to i32
  %75 = sext i32 %74 to i64
  %76 = getelementptr inbounds i8, ptr %68, i64 %75
  store ptr %76, ptr %11, align 8, !tbaa !3
  %77 = load ptr, ptr %10, align 8, !tbaa !3
  %78 = load ptr, ptr %5, align 8, !tbaa !10
  %79 = getelementptr inbounds nuw %struct.mbedtls_md_context_t, ptr %78, i32 0, i32 0
  %80 = load ptr, ptr %79, align 8, !tbaa !12
  %81 = getelementptr inbounds nuw %struct.mbedtls_md_info_t, ptr %80, i32 0, i32 3
  %82 = load i8, ptr %81, align 1, !tbaa !19
  %83 = zext i8 %82 to i64
  call void @llvm.memset.p0.i64(ptr align 1 %77, i8 54, i64 %83, i1 false)
  %84 = load ptr, ptr %11, align 8, !tbaa !3
  %85 = load ptr, ptr %5, align 8, !tbaa !10
  %86 = getelementptr inbounds nuw %struct.mbedtls_md_context_t, ptr %85, i32 0, i32 0
  %87 = load ptr, ptr %86, align 8, !tbaa !12
  %88 = getelementptr inbounds nuw %struct.mbedtls_md_info_t, ptr %87, i32 0, i32 3
  %89 = load i8, ptr %88, align 1, !tbaa !19
  %90 = zext i8 %89 to i64
  call void @llvm.memset.p0.i64(ptr align 1 %84, i8 92, i64 %90, i1 false)
  store i64 0, ptr %12, align 8, !tbaa !23
  br label %91

91:                                               ; preds = %126, %62
  %92 = load i64, ptr %12, align 8, !tbaa !23
  %93 = load i64, ptr %7, align 8, !tbaa !23
  %94 = icmp ult i64 %92, %93
  br i1 %94, label %95, label %129

95:                                               ; preds = %91
  %96 = load ptr, ptr %10, align 8, !tbaa !3
  %97 = load i64, ptr %12, align 8, !tbaa !23
  %98 = getelementptr inbounds nuw i8, ptr %96, i64 %97
  %99 = load i8, ptr %98, align 1, !tbaa !26
  %100 = zext i8 %99 to i32
  %101 = load ptr, ptr %6, align 8, !tbaa !3
  %102 = load i64, ptr %12, align 8, !tbaa !23
  %103 = getelementptr inbounds nuw i8, ptr %101, i64 %102
  %104 = load i8, ptr %103, align 1, !tbaa !26
  %105 = zext i8 %104 to i32
  %106 = xor i32 %100, %105
  %107 = trunc i32 %106 to i8
  %108 = load ptr, ptr %10, align 8, !tbaa !3
  %109 = load i64, ptr %12, align 8, !tbaa !23
  %110 = getelementptr inbounds nuw i8, ptr %108, i64 %109
  store i8 %107, ptr %110, align 1, !tbaa !26
  %111 = load ptr, ptr %11, align 8, !tbaa !3
  %112 = load i64, ptr %12, align 8, !tbaa !23
  %113 = getelementptr inbounds nuw i8, ptr %111, i64 %112
  %114 = load i8, ptr %113, align 1, !tbaa !26
  %115 = zext i8 %114 to i32
  %116 = load ptr, ptr %6, align 8, !tbaa !3
  %117 = load i64, ptr %12, align 8, !tbaa !23
  %118 = getelementptr inbounds nuw i8, ptr %116, i64 %117
  %119 = load i8, ptr %118, align 1, !tbaa !26
  %120 = zext i8 %119 to i32
  %121 = xor i32 %115, %120
  %122 = trunc i32 %121 to i8
  %123 = load ptr, ptr %11, align 8, !tbaa !3
  %124 = load i64, ptr %12, align 8, !tbaa !23
  %125 = getelementptr inbounds nuw i8, ptr %123, i64 %124
  store i8 %122, ptr %125, align 1, !tbaa !26
  br label %126

126:                                              ; preds = %95
  %127 = load i64, ptr %12, align 8, !tbaa !23
  %128 = add i64 %127, 1
  store i64 %128, ptr %12, align 8, !tbaa !23
  br label %91, !llvm.loop !27

129:                                              ; preds = %91
  %130 = load ptr, ptr %5, align 8, !tbaa !10
  %131 = call i32 @mbedtls_md_starts(ptr noundef %130)
  store i32 %131, ptr %8, align 4, !tbaa !21
  %132 = icmp ne i32 %131, 0
  br i1 %132, label %133, label %134

133:                                              ; preds = %129
  br label %147

134:                                              ; preds = %129
  %135 = load ptr, ptr %5, align 8, !tbaa !10
  %136 = load ptr, ptr %10, align 8, !tbaa !3
  %137 = load ptr, ptr %5, align 8, !tbaa !10
  %138 = getelementptr inbounds nuw %struct.mbedtls_md_context_t, ptr %137, i32 0, i32 0
  %139 = load ptr, ptr %138, align 8, !tbaa !12
  %140 = getelementptr inbounds nuw %struct.mbedtls_md_info_t, ptr %139, i32 0, i32 3
  %141 = load i8, ptr %140, align 1, !tbaa !19
  %142 = zext i8 %141 to i64
  %143 = call i32 @mbedtls_md_update(ptr noundef %135, ptr noundef %136, i64 noundef %142)
  store i32 %143, ptr %8, align 4, !tbaa !21
  %144 = icmp ne i32 %143, 0
  br i1 %144, label %145, label %146

145:                                              ; preds = %134
  br label %147

146:                                              ; preds = %134
  br label %147

147:                                              ; preds = %146, %145, %133, %53, %47, %40
  %148 = getelementptr inbounds [32 x i8], ptr %9, i64 0, i64 0
  call void @mbedtls_platform_zeroize(ptr noundef %148, i64 noundef 32)
  %149 = load i32, ptr %8, align 4, !tbaa !21
  store i32 %149, ptr %4, align 4
  store i32 1, ptr %13, align 4
  br label %150

150:                                              ; preds = %147, %26
  call void @llvm.lifetime.end.p0(i64 8, ptr %12) #9
  call void @llvm.lifetime.end.p0(i64 8, ptr %11) #9
  call void @llvm.lifetime.end.p0(i64 8, ptr %10) #9
  call void @llvm.lifetime.end.p0(i64 32, ptr %9) #9
  call void @llvm.lifetime.end.p0(i64 4, ptr %8) #9
  %151 = load i32, ptr %4, align 4
  ret i32 %151
}