; Function Attrs: mustprogress uwtable
define hidden i32 @mbedtls_md_hmac_starts(ptr noundef captures(address_is_null) %0, ptr noundef %1, i64 noundef %2) local_unnamed_addr #5 {
  %4 = alloca [32 x i8], align 16
  call void @llvm.lifetime.start.p0(i64 32, ptr nonnull %4) #12
  %5 = icmp eq ptr %0, null
  br i1 %5, label %111, label %6

6:                                                ; preds = %3
  %7 = load ptr, ptr %0, align 8, !tbaa !3
  %8 = icmp eq ptr %7, null
  br i1 %8, label %111, label %9

9:                                                ; preds = %6
  %10 = getelementptr inbounds nuw i8, ptr %0, i64 16
  %11 = load ptr, ptr %10, align 8, !tbaa !14
  %12 = icmp eq ptr %11, null
  br i1 %12, label %111, label %13

13:                                               ; preds = %9
  %14 = getelementptr inbounds nuw i8, ptr %7, i64 13
  %15 = load i8, ptr %14, align 1, !tbaa !15
  %16 = zext i8 %15 to i64
  %17 = icmp ugt i64 %2, %16
  br i1 %17, label %18, label %58

18:                                               ; preds = %13
  %19 = getelementptr inbounds nuw i8, ptr %7, i64 8
  %20 = load i32, ptr %19, align 8, !tbaa !10
  switch i32 %20, label %mbedtls_md_update.exit56 [
    i32 2, label %21
    i32 3, label %25
    i32 4, label %29
  ]

21:                                               ; preds = %18
  %22 = getelementptr inbounds nuw i8, ptr %0, i64 8
  %23 = load ptr, ptr %22, align 8, !tbaa !9
  %24 = tail call i32 @mbedtls_sha1_starts(ptr noundef %23)
  br label %mbedtls_md_starts.exit

25:                                               ; preds = %18
  %26 = getelementptr inbounds nuw i8, ptr %0, i64 8
  %27 = load ptr, ptr %26, align 8, !tbaa !9
  %28 = tail call i32 @mbedtls_sha256_starts(ptr noundef %27, i32 noundef 1)
  br label %mbedtls_md_starts.exit

29:                                               ; preds = %18
  %30 = getelementptr inbounds nuw i8, ptr %0, i64 8
  %31 = load ptr, ptr %30, align 8, !tbaa !9
  %32 = tail call i32 @mbedtls_sha256_starts(ptr noundef %31, i32 noundef 0)
  br label %mbedtls_md_starts.exit

mbedtls_md_starts.exit:                           ; preds = %21, %25, %29
  %.0.i = phi i32 [ %32, %29 ], [ %28, %25 ], [ %24, %21 ]
  %.not = icmp eq i32 %.0.i, 0
  br i1 %.not, label %33, label %mbedtls_md_update.exit56

33:                                               ; preds = %mbedtls_md_starts.exit
  %34 = load ptr, ptr %0, align 8, !tbaa !3
  %35 = icmp eq ptr %34, null
  br i1 %35, label %mbedtls_md_update.exit56, label %36

36:                                               ; preds = %33
  %37 = getelementptr inbounds nuw i8, ptr %34, i64 8
  %38 = load i32, ptr %37, align 8, !tbaa !10
  switch i32 %38, label %mbedtls_md_update.exit56 [
    i32 2, label %39
    i32 3, label %43
    i32 4, label %47
  ]

39:                                               ; preds = %36
  %40 = getelementptr inbounds nuw i8, ptr %0, i64 8
  %41 = load ptr, ptr %40, align 8, !tbaa !9
  %42 = tail call i32 @mbedtls_sha1_update(ptr noundef %41, ptr noundef %1, i64 noundef %2)
  br label %mbedtls_md_update.exit

43:                                               ; preds = %36
  %44 = getelementptr inbounds nuw i8, ptr %0, i64 8
  %45 = load ptr, ptr %44, align 8, !tbaa !9
  %46 = tail call i32 @mbedtls_sha256_update(ptr noundef %45, ptr noundef %1, i64 noundef %2)
  br label %mbedtls_md_update.exit

47:                                               ; preds = %36
  %48 = getelementptr inbounds nuw i8, ptr %0, i64 8
  %49 = load ptr, ptr %48, align 8, !tbaa !9
  %50 = tail call i32 @mbedtls_sha256_update(ptr noundef %49, ptr noundef %1, i64 noundef %2)
  br label %mbedtls_md_update.exit

mbedtls_md_update.exit:                           ; preds = %39, %43, %47
  %.0.i52 = phi i32 [ %50, %47 ], [ %46, %43 ], [ %42, %39 ]
  %.not49 = icmp eq i32 %.0.i52, 0
  br i1 %.not49, label %51, label %mbedtls_md_update.exit56

51:                                               ; preds = %mbedtls_md_update.exit
  %52 = call i32 @mbedtls_md_finish(ptr noundef nonnull %0, ptr noundef nonnull %4)
  %.not50 = icmp eq i32 %52, 0
  br i1 %.not50, label %53, label %mbedtls_md_update.exit56

53:                                               ; preds = %51
  %54 = load ptr, ptr %0, align 8, !tbaa !3
  %55 = getelementptr inbounds nuw i8, ptr %54, i64 12
  %56 = load i8, ptr %55, align 4, !tbaa !16
  %57 = zext i8 %56 to i64
  %.pre = load ptr, ptr %10, align 8, !tbaa !14
  %.phi.trans.insert = getelementptr inbounds nuw i8, ptr %54, i64 13
  %.pre65 = load i8, ptr %.phi.trans.insert, align 1, !tbaa !15
  %.pre66 = zext i8 %.pre65 to i64
  br label %58

58:                                               ; preds = %53, %13
  %.pre-phi = phi i64 [ %.pre66, %53 ], [ %16, %13 ]
  %59 = phi ptr [ %.pre, %53 ], [ %11, %13 ]
  %.041 = phi i64 [ %57, %53 ], [ %2, %13 ]
  %.039 = phi ptr [ %4, %53 ], [ %1, %13 ]
  %60 = getelementptr inbounds nuw i8, ptr %59, i64 %.pre-phi
  call void @llvm.memset.p0.i64(ptr align 1 %59, i8 54, i64 %.pre-phi, i1 false)
  %61 = load ptr, ptr %0, align 8, !tbaa !3
  %62 = getelementptr inbounds nuw i8, ptr %61, i64 13
  %63 = load i8, ptr %62, align 1, !tbaa !15
  %64 = zext i8 %63 to i64
  call void @llvm.memset.p0.i64(ptr align 1 %60, i8 92, i64 %64, i1 false)
  %.not64 = icmp eq i64 %.041, 0
  br i1 %.not64, label %._crit_edge, label %.lr.ph

.lr.ph:                                           ; preds = %58, %.lr.ph
  %.063 = phi i64 [ %74, %.lr.ph ], [ 0, %58 ]
  %65 = getelementptr inbounds nuw i8, ptr %59, i64 %.063
  %66 = load i8, ptr %65, align 1, !tbaa !17
  %67 = getelementptr inbounds nuw i8, ptr %.039, i64 %.063
  %68 = load i8, ptr %67, align 1, !tbaa !17
  %69 = xor i8 %68, %66
  store i8 %69, ptr %65, align 1, !tbaa !17
  %70 = getelementptr inbounds nuw i8, ptr %60, i64 %.063
  %71 = load i8, ptr %70, align 1, !tbaa !17
  %72 = load i8, ptr %67, align 1, !tbaa !17
  %73 = xor i8 %72, %71
  store i8 %73, ptr %70, align 1, !tbaa !17
  %74 = add nuw nsw i64 %.063, 1
  %exitcond.not = icmp eq i64 %74, %.041
  br i1 %exitcond.not, label %._crit_edge, label %.lr.ph, !llvm.loop !18

._crit_edge:                                      ; preds = %.lr.ph, %58
  %75 = load ptr, ptr %0, align 8, !tbaa !3
  %76 = icmp eq ptr %75, null
  br i1 %76, label %mbedtls_md_update.exit56, label %77

77:                                               ; preds = %._crit_edge
  %78 = getelementptr inbounds nuw i8, ptr %75, i64 8
  %79 = load i32, ptr %78, align 8, !tbaa !10
  switch i32 %79, label %mbedtls_md_update.exit56 [
    i32 2, label %80
    i32 3, label %84
    i32 4, label %88
  ]

80:                                               ; preds = %77
  %81 = getelementptr inbounds nuw i8, ptr %0, i64 8
  %82 = load ptr, ptr %81, align 8, !tbaa !9
  %83 = call i32 @mbedtls_sha1_starts(ptr noundef %82)
  br label %mbedtls_md_starts.exit54

84:                                               ; preds = %77
  %85 = getelementptr inbounds nuw i8, ptr %0, i64 8
  %86 = load ptr, ptr %85, align 8, !tbaa !9
  %87 = call i32 @mbedtls_sha256_starts(ptr noundef %86, i32 noundef 1)
  br label %mbedtls_md_starts.exit54

88:                                               ; preds = %77
  %89 = getelementptr inbounds nuw i8, ptr %0, i64 8
  %90 = load ptr, ptr %89, align 8, !tbaa !9
  %91 = call i32 @mbedtls_sha256_starts(ptr noundef %90, i32 noundef 0)
  br label %mbedtls_md_starts.exit54

mbedtls_md_starts.exit54:                         ; preds = %80, %84, %88
  %.0.i53 = phi i32 [ %91, %88 ], [ %87, %84 ], [ %83, %80 ]
  %.not51 = icmp eq i32 %.0.i53, 0
  br i1 %.not51, label %92, label %mbedtls_md_update.exit56

92:                                               ; preds = %mbedtls_md_starts.exit54
  %93 = load ptr, ptr %0, align 8, !tbaa !3
  %94 = getelementptr inbounds nuw i8, ptr %93, i64 13
  %95 = load i8, ptr %94, align 1, !tbaa !15
  %96 = zext i8 %95 to i64
  %97 = getelementptr inbounds nuw i8, ptr %93, i64 8
  %98 = load i32, ptr %97, align 8, !tbaa !10
  switch i32 %98, label %mbedtls_md_update.exit56 [
    i32 2, label %99
    i32 3, label %103
    i32 4, label %107
  ]

99:                                               ; preds = %92
  %100 = getelementptr inbounds nuw i8, ptr %0, i64 8
  %101 = load ptr, ptr %100, align 8, !tbaa !9
  %102 = call i32 @mbedtls_sha1_update(ptr noundef %101, ptr noundef %59, i64 noundef %96)
  br label %mbedtls_md_update.exit56

103:                                              ; preds = %92
  %104 = getelementptr inbounds nuw i8, ptr %0, i64 8
  %105 = load ptr, ptr %104, align 8, !tbaa !9
  %106 = call i32 @mbedtls_sha256_update(ptr noundef %105, ptr noundef %59, i64 noundef %96)
  br label %mbedtls_md_update.exit56

107:                                              ; preds = %92
  %108 = getelementptr inbounds nuw i8, ptr %0, i64 8
  %109 = load ptr, ptr %108, align 8, !tbaa !9
  %110 = call i32 @mbedtls_sha256_update(ptr noundef %109, ptr noundef %59, i64 noundef %96)
  br label %mbedtls_md_update.exit56

mbedtls_md_update.exit56:                         ; preds = %77, %._crit_edge, %36, %33, %18, %107, %103, %99, %92, %mbedtls_md_starts.exit54, %51, %mbedtls_md_update.exit, %mbedtls_md_starts.exit
  %.040 = phi i32 [ %.0.i, %mbedtls_md_starts.exit ], [ %.0.i52, %mbedtls_md_update.exit ], [ %52, %51 ], [ %.0.i53, %mbedtls_md_starts.exit54 ], [ %110, %107 ], [ %106, %103 ], [ %102, %99 ], [ -20736, %92 ], [ -20736, %18 ], [ -20736, %33 ], [ -20736, %36 ], [ -20736, %._crit_edge ], [ -20736, %77 ]
  call void @mbedtls_platform_zeroize(ptr noundef nonnull %4, i64 noundef 32)
  br label %111

111:                                              ; preds = %3, %6, %9, %mbedtls_md_update.exit56
  %.038 = phi i32 [ %.040, %mbedtls_md_update.exit56 ], [ -20736, %9 ], [ -20736, %6 ], [ -20736, %3 ]
  call void @llvm.lifetime.end.p0(i64 32, ptr nonnull %4) #12
  ret i32 %.038
}